; ModuleID = 'optimized.ll'
source_filename = "../test/test.cpp"
target datalayout = "e-m:w-p270:32:32-p271:32:32-p272:64:64-i64:64-i128:128-f80:128-n8:16:32:64-S128"
target triple = "x86_64-w64-windows-gnu"

%"class.std::basic_ostream" = type { ptr, %"class.std::basic_ios" }
%"class.std::basic_ios" = type { %"class.std::ios_base", ptr, i8, i8, ptr, ptr, ptr, ptr }
%"class.std::ios_base" = type { ptr, i64, i64, i32, i32, i32, ptr, %"struct.std::ios_base::_Words", [8 x %"struct.std::ios_base::_Words"], i32, ptr, %"class.std::locale" }
%"struct.std::ios_base::_Words" = type <{ ptr, i32, [4 x i8] }>
%"class.std::locale" = type { ptr }

@_ZSt4cout = external global %"class.std::basic_ostream", align 8

; Function Attrs: mustprogress uwtable
define dso_local void @_Z12loop_examplev() local_unnamed_addr #0 {
  br label %2

1:                                                ; preds = %25
  ret void

2:                                                ; preds = %25, %0
  %3 = phi i32 [ 0, %0 ], [ %29, %25 ]
  %4 = tail call noundef nonnull align 8 dereferenceable(8) ptr @_ZNSolsEi(ptr noundef nonnull align 8 dereferenceable(8) @_ZSt4cout, i32 noundef %3)
  %5 = load ptr, ptr %4, align 8, !tbaa !5
  %6 = getelementptr i8, ptr %5, i64 -24
  %7 = load i64, ptr %6, align 8
  %8 = getelementptr inbounds i8, ptr %4, i64 %7
  %9 = getelementptr inbounds nuw i8, ptr %8, i64 240
  %10 = load ptr, ptr %9, align 8, !tbaa !8
  %11 = icmp eq ptr %10, null
  br i1 %11, label %12, label %13

12:                                               ; preds = %2
  tail call void @_ZSt16__throw_bad_castv() #4
  unreachable

13:                                               ; preds = %2
  %14 = getelementptr inbounds nuw i8, ptr %10, i64 56
  %15 = load i8, ptr %14, align 8, !tbaa !29
  %16 = icmp eq i8 %15, 0
  br i1 %16, label %20, label %17

17:                                               ; preds = %13
  %18 = getelementptr inbounds nuw i8, ptr %10, i64 67
  %19 = load i8, ptr %18, align 1, !tbaa !34
  br label %25

20:                                               ; preds = %13
  tail call void @_ZNKSt5ctypeIcE13_M_widen_initEv(ptr noundef nonnull align 8 dereferenceable(570) %10)
  %21 = load ptr, ptr %10, align 8, !tbaa !5
  %22 = getelementptr inbounds nuw i8, ptr %21, i64 48
  %23 = load ptr, ptr %22, align 8
  %24 = tail call noundef i8 %23(ptr noundef nonnull align 8 dereferenceable(570) %10, i8 noundef 10)
  br label %25

25:                                               ; preds = %20, %17
  %26 = phi i8 [ %19, %17 ], [ %24, %20 ]
  %27 = tail call noundef nonnull align 8 dereferenceable(8) ptr @_ZNSo3putEc(ptr noundef nonnull align 8 dereferenceable(8) %4, i8 noundef %26)
  %28 = tail call noundef nonnull align 8 dereferenceable(8) ptr @_ZNSo5flushEv(ptr noundef nonnull align 8 dereferenceable(8) %27)
  %29 = add nuw nsw i32 %3, 1
  %30 = icmp eq i32 %29, 4
  br i1 %30, label %1, label %2, !llvm.loop !35
}

declare dso_local noundef nonnull align 8 dereferenceable(8) ptr @_ZNSolsEi(ptr noundef nonnull align 8 dereferenceable(8), i32 noundef) local_unnamed_addr #1

; Function Attrs: mustprogress norecurse uwtable
define dso_local noundef i32 @main() local_unnamed_addr #2 {
  tail call void @_Z12loop_examplev()
  ret i32 0
}

declare dso_local noundef nonnull align 8 dereferenceable(8) ptr @_ZNSo3putEc(ptr noundef nonnull align 8 dereferenceable(8), i8 noundef) local_unnamed_addr #1

declare dso_local noundef nonnull align 8 dereferenceable(8) ptr @_ZNSo5flushEv(ptr noundef nonnull align 8 dereferenceable(8)) local_unnamed_addr #1

; Function Attrs: cold noreturn
declare dso_local void @_ZSt16__throw_bad_castv() local_unnamed_addr #3

declare dso_local void @_ZNKSt5ctypeIcE13_M_widen_initEv(ptr noundef nonnull align 8 dereferenceable(570)) local_unnamed_addr #1

attributes #0 = { mustprogress uwtable "min-legal-vector-width"="0" "no-trapping-math"="true" "stack-protector-buffer-size"="8" "target-cpu"="x86-64" "target-features"="+cmov,+cx8,+fxsr,+mmx,+sse,+sse2,+x87" "tune-cpu"="generic" }
attributes #1 = { "no-trapping-math"="true" "stack-protector-buffer-size"="8" "target-cpu"="x86-64" "target-features"="+cmov,+cx8,+fxsr,+mmx,+sse,+sse2,+x87" "tune-cpu"="generic" }
attributes #2 = { mustprogress norecurse uwtable "min-legal-vector-width"="0" "no-trapping-math"="true" "stack-protector-buffer-size"="8" "target-cpu"="x86-64" "target-features"="+cmov,+cx8,+fxsr,+mmx,+sse,+sse2,+x87" "tune-cpu"="generic" }
attributes #3 = { cold noreturn "no-trapping-math"="true" "stack-protector-buffer-size"="8" "target-cpu"="x86-64" "target-features"="+cmov,+cx8,+fxsr,+mmx,+sse,+sse2,+x87" "tune-cpu"="generic" }
attributes #4 = { cold noreturn }

!llvm.module.flags = !{!0, !1, !2, !3}
!llvm.ident = !{!4}

!0 = !{i32 1, !"wchar_size", i32 2}
!1 = !{i32 8, !"PIC Level", i32 2}
!2 = !{i32 7, !"uwtable", i32 2}
!3 = !{i32 1, !"MaxTLSAlign", i32 65536}
!4 = !{!"clang version 20.1.5"}
!5 = !{!6, !6, i64 0}
!6 = !{!"vtable pointer", !7, i64 0}
!7 = !{!"Simple C++ TBAA"}
!8 = !{!9, !26, i64 240}
!9 = !{!"_ZTSSt9basic_iosIcSt11char_traitsIcEE", !10, i64 0, !23, i64 216, !12, i64 224, !24, i64 225, !25, i64 232, !26, i64 240, !27, i64 248, !28, i64 256}
!10 = !{!"_ZTSSt8ios_base", !11, i64 8, !11, i64 16, !13, i64 24, !14, i64 28, !14, i64 32, !15, i64 40, !17, i64 48, !12, i64 64, !19, i64 192, !20, i64 200, !21, i64 208}
!11 = !{!"long long", !12, i64 0}
!12 = !{!"omnipotent char", !7, i64 0}
!13 = !{!"_ZTSSt13_Ios_Fmtflags", !12, i64 0}
!14 = !{!"_ZTSSt12_Ios_Iostate", !12, i64 0}
!15 = !{!"p1 _ZTSNSt8ios_base14_Callback_listE", !16, i64 0}
!16 = !{!"any pointer", !12, i64 0}
!17 = !{!"_ZTSNSt8ios_base6_WordsE", !16, i64 0, !18, i64 8}
!18 = !{!"long", !12, i64 0}
!19 = !{!"int", !12, i64 0}
!20 = !{!"p1 _ZTSNSt8ios_base6_WordsE", !16, i64 0}
!21 = !{!"_ZTSSt6locale", !22, i64 0}
!22 = !{!"p1 _ZTSNSt6locale5_ImplE", !16, i64 0}
!23 = !{!"p1 _ZTSSo", !16, i64 0}
!24 = !{!"bool", !12, i64 0}
!25 = !{!"p1 _ZTSSt15basic_streambufIcSt11char_traitsIcEE", !16, i64 0}
!26 = !{!"p1 _ZTSSt5ctypeIcE", !16, i64 0}
!27 = !{!"p1 _ZTSSt7num_putIcSt19ostreambuf_iteratorIcSt11char_traitsIcEEE", !16, i64 0}
!28 = !{!"p1 _ZTSSt7num_getIcSt19istreambuf_iteratorIcSt11char_traitsIcEEE", !16, i64 0}
!29 = !{!30, !12, i64 56}
!30 = !{!"_ZTSSt5ctypeIcE", !31, i64 0, !32, i64 16, !24, i64 24, !32, i64 32, !32, i64 40, !33, i64 48, !12, i64 56, !12, i64 57, !12, i64 313, !12, i64 569}
!31 = !{!"_ZTSNSt6locale5facetE", !19, i64 8}
!32 = !{!"p1 int", !16, i64 0}
!33 = !{!"p1 short", !16, i64 0}
!34 = !{!12, !12, i64 0}
!35 = distinct !{!35, !36, !37}
!36 = !{!"llvm.loop.mustprogress"}
!37 = !{!"llvm.loop.unroll.disable"}
